target datalayout = "e-m:e-p270:32:32-p271:32:32-p272:64:64-i64:64-i128:128-f80:128-n8:16:32:64-S128"
target triple = "x86_64-pc-linux-gnu"

%struct.ThreadData = type { ptr, ptr }
%struct.AVFilterLink = type { ptr, ptr, ptr, ptr, i32, i32, i32, i32, %struct.AVRational, i32, i32, i32, %struct.AVChannelLayout, %struct.AVRational, ptr, i32, %struct.AVFilterFormatsConfig, %struct.AVFilterFormatsConfig }
%struct.AVChannelLayout = type { i32, i32, %union.anon.1, ptr }
%union.anon.1 = type { i64 }
%struct.AVRational = type { i32, i32 }
%struct.AVFilterFormatsConfig = type { ptr, ptr, ptr, ptr, ptr }
%struct.AVFilterContext = type { ptr, ptr, ptr, ptr, ptr, i32, ptr, ptr, i32, ptr, ptr, i32, i32, ptr, ptr, ptr, ptr, i32, ptr, i32, i32 }
%struct.AVFrame = type { [8 x ptr], [8 x i32], ptr, i32, i32, i32, i32, i32, %struct.AVRational, i64, i64, %struct.AVRational, i32, ptr, i32, i32, [8 x ptr], ptr, i32, ptr, i32, i32, i32, i32, i32, i32, i32, i64, ptr, i32, ptr, ptr, i64, i64, i64, i64, ptr, %struct.AVChannelLayout, i64 }
%struct.ADenormContext = type { ptr, double, double, i32, i64, [4 x ptr] }

; Function Attrs: nounwind uwtable
define internal i32 @filter_frame(ptr noundef %0, ptr noundef %1) #1 {
  %3 = alloca i32, align 4
  %4 = alloca ptr, align 8
  %5 = alloca ptr, align 8
  %6 = alloca ptr, align 8
  %7 = alloca ptr, align 8
  %8 = alloca ptr, align 8
  %9 = alloca %struct.ThreadData, align 8
  %10 = alloca ptr, align 8
  %11 = alloca i32, align 4
  store ptr %0, ptr %4, align 8, !tbaa !4
  store ptr %1, ptr %5, align 8, !tbaa !9
  call void @llvm.lifetime.start.p0(i64 8, ptr %6) #6
  %12 = load ptr, ptr %4, align 8, !tbaa !4
  %13 = getelementptr inbounds nuw %struct.AVFilterLink, ptr %12, i32 0, i32 2
  %14 = load ptr, ptr %13, align 8, !tbaa !11
  store ptr %14, ptr %6, align 8, !tbaa !23
  call void @llvm.lifetime.start.p0(i64 8, ptr %7) #6
  %15 = load ptr, ptr %6, align 8, !tbaa !23
  %16 = getelementptr inbounds nuw %struct.AVFilterContext, ptr %15, i32 0, i32 9
  %17 = load ptr, ptr %16, align 8, !tbaa !24
  store ptr %17, ptr %7, align 8, !tbaa !34
  call void @llvm.lifetime.start.p0(i64 8, ptr %8) #6
  %18 = load ptr, ptr %6, align 8, !tbaa !23
  %19 = getelementptr inbounds nuw %struct.AVFilterContext, ptr %18, i32 0, i32 7
  %20 = load ptr, ptr %19, align 8, !tbaa !36
  %21 = getelementptr inbounds ptr, ptr %20, i64 0
  %22 = load ptr, ptr %21, align 8, !tbaa !4
  store ptr %22, ptr %8, align 8, !tbaa !4
  call void @llvm.lifetime.start.p0(i64 16, ptr %9) #6
  call void @llvm.lifetime.start.p0(i64 8, ptr %10) #6
  %23 = load ptr, ptr %5, align 8, !tbaa !9
  %24 = call i32 @av_frame_is_writable(ptr noundef %23)
  %25 = icmp ne i32 %24, 0
  br i1 %25, label %26, label %28

26:                                               ; preds = %2
  %27 = load ptr, ptr %5, align 8, !tbaa !9
  store ptr %27, ptr %10, align 8, !tbaa !9
  br label %41

28:                                               ; preds = %2
  %29 = load ptr, ptr %8, align 8, !tbaa !4
  %30 = load ptr, ptr %5, align 8, !tbaa !9
  %31 = getelementptr inbounds nuw %struct.AVFrame, ptr %30, i32 0, i32 5
  %32 = load i32, ptr %31, align 8, !tbaa !37
  %33 = call ptr @ff_get_audio_buffer(ptr noundef %29, i32 noundef %32)
  store ptr %33, ptr %10, align 8, !tbaa !9
  %34 = load ptr, ptr %10, align 8, !tbaa !9
  %35 = icmp ne ptr %34, null
  br i1 %35, label %37, label %36

36:                                               ; preds = %28
  call void @av_frame_free(ptr noundef %5)
  store i32 -12, ptr %3, align 4
  store i32 1, ptr %11, align 4
  br label %89

37:                                               ; preds = %28
  %38 = load ptr, ptr %10, align 8, !tbaa !9
  %39 = load ptr, ptr %5, align 8, !tbaa !9
  %40 = call i32 @av_frame_copy_props(ptr noundef %38, ptr noundef %39)
  br label %41

41:                                               ; preds = %37, %26
  %42 = load ptr, ptr %7, align 8, !tbaa !34
  %43 = getelementptr inbounds nuw %struct.ADenormContext, ptr %42, i32 0, i32 2
  %44 = load double, ptr %43, align 8, !tbaa !43
  %45 = fdiv nsz double %44, 2.000000e+01
  %46 = fmul nsz double %45, 0x40026BB1BBB55516
  %47 = call nsz double @llvm.exp.f64(double %46)
  %48 = load ptr, ptr %7, align 8, !tbaa !34
  %49 = getelementptr inbounds nuw %struct.ADenormContext, ptr %48, i32 0, i32 1
  store double %47, ptr %49, align 8, !tbaa !46
  %50 = load ptr, ptr %5, align 8, !tbaa !9
  %51 = getelementptr inbounds nuw %struct.ThreadData, ptr %9, i32 0, i32 0
  store ptr %50, ptr %51, align 8, !tbaa !47
  %52 = load ptr, ptr %10, align 8, !tbaa !9
  %53 = getelementptr inbounds nuw %struct.ThreadData, ptr %9, i32 0, i32 1
  store ptr %52, ptr %53, align 8, !tbaa !49
  %54 = load ptr, ptr %6, align 8, !tbaa !23
  %55 = load ptr, ptr %4, align 8, !tbaa !4
  %56 = getelementptr inbounds nuw %struct.AVFilterLink, ptr %55, i32 0, i32 12
  %57 = getelementptr inbounds nuw %struct.AVChannelLayout, ptr %56, i32 0, i32 1
  %58 = load i32, ptr %57, align 4, !tbaa !50
  %59 = load ptr, ptr %6, align 8, !tbaa !23
  %60 = call i32 @ff_filter_get_nb_threads(ptr noundef %59) #7
  %61 = icmp sgt i32 %58, %60
  br i1 %61, label %62, label %65

62:                                               ; preds = %41
  %63 = load ptr, ptr %6, align 8, !tbaa !23
  %64 = call i32 @ff_filter_get_nb_threads(ptr noundef %63) #7
  br label %70

65:                                               ; preds = %41
  %66 = load ptr, ptr %4, align 8, !tbaa !4
  %67 = getelementptr inbounds nuw %struct.AVFilterLink, ptr %66, i32 0, i32 12
  %68 = getelementptr inbounds nuw %struct.AVChannelLayout, ptr %67, i32 0, i32 1
  %69 = load i32, ptr %68, align 4, !tbaa !50
  br label %70

70:                                               ; preds = %65, %62
  %71 = phi i32 [ %64, %62 ], [ %69, %65 ]
  %72 = call i32 @ff_filter_execute(ptr noundef %54, ptr noundef @filter_channels, ptr noundef %9, ptr noundef null, i32 noundef %71)
  %73 = load ptr, ptr %5, align 8, !tbaa !9
  %74 = getelementptr inbounds nuw %struct.AVFrame, ptr %73, i32 0, i32 5
  %75 = load i32, ptr %74, align 8, !tbaa !37
  %76 = sext i32 %75 to i64
  %77 = load ptr, ptr %7, align 8, !tbaa !34
  %78 = getelementptr inbounds nuw %struct.ADenormContext, ptr %77, i32 0, i32 4
  %79 = load i64, ptr %78, align 8, !tbaa !51
  %80 = add nsw i64 %79, %76
  store i64 %80, ptr %78, align 8, !tbaa !51
  %81 = load ptr, ptr %10, align 8, !tbaa !9
  %82 = load ptr, ptr %5, align 8, !tbaa !9
  %83 = icmp ne ptr %81, %82
  br i1 %83, label %84, label %85

84:                                               ; preds = %70
  call void @av_frame_free(ptr noundef %5)
  br label %85

85:                                               ; preds = %84, %70
  %86 = load ptr, ptr %8, align 8, !tbaa !4
  %87 = load ptr, ptr %10, align 8, !tbaa !9
  %88 = call i32 @ff_filter_frame(ptr noundef %86, ptr noundef %87)
  store i32 %88, ptr %3, align 4
  store i32 1, ptr %11, align 4
  br label %89

89:                                               ; preds = %85, %36
  call void @llvm.lifetime.end.p0(i64 8, ptr %10) #6
  call void @llvm.lifetime.end.p0(i64 16, ptr %9) #6
  call void @llvm.lifetime.end.p0(i64 8, ptr %8) #6
  call void @llvm.lifetime.end.p0(i64 8, ptr %7) #6
  call void @llvm.lifetime.end.p0(i64 8, ptr %6) #6
  %90 = load i32, ptr %3, align 4
  ret i32 %90
}