; Function Attrs: nounwind uwtable
define internal i32 @filter_frame(ptr noundef readonly captures(none) %0, ptr noundef %1) #1 {
  %3 = alloca ptr, align 8
  %4 = alloca %struct.ThreadData, align 8
  store ptr %1, ptr %3, align 8, !tbaa !4
  %5 = getelementptr inbounds nuw i8, ptr %0, i64 16
  %6 = load ptr, ptr %5, align 8, !tbaa !9
  %7 = getelementptr inbounds nuw i8, ptr %6, i64 72
  %8 = load ptr, ptr %7, align 8, !tbaa !21
  %9 = getelementptr inbounds nuw i8, ptr %6, i64 56
  %10 = load ptr, ptr %9, align 8, !tbaa !31
  %11 = load ptr, ptr %10, align 8, !tbaa !32
  call void @llvm.lifetime.start.p0(i64 16, ptr nonnull %4) #8
  %12 = tail call i32 @av_frame_is_writable(ptr noundef %1) #8
  %.not = icmp eq i32 %12, 0
  br i1 %.not, label %13, label %20

13:                                               ; preds = %2
  %14 = getelementptr inbounds nuw i8, ptr %1, i64 112
  %15 = load i32, ptr %14, align 8, !tbaa !34
  %16 = tail call ptr @ff_get_audio_buffer(ptr noundef %11, i32 noundef %15) #8
  %.not22 = icmp eq ptr %16, null
  br i1 %.not22, label %17, label %18

17:                                               ; preds = %13
  call void @av_frame_free(ptr noundef nonnull %3) #8
  br label %42

18:                                               ; preds = %13
  %19 = tail call i32 @av_frame_copy_props(ptr noundef nonnull %16, ptr noundef nonnull %1) #8
  br label %20

20:                                               ; preds = %2, %18
  %.0 = phi ptr [ %16, %18 ], [ %1, %2 ]
  %21 = getelementptr inbounds nuw i8, ptr %8, i64 16
  %22 = load double, ptr %21, align 8, !tbaa !40
  %23 = fdiv nsz double %22, 2.000000e+01
  %24 = fmul nsz double %23, 0x40026BB1BBB55516
  %25 = tail call nsz double @llvm.exp.f64(double %24)
  %26 = getelementptr inbounds nuw i8, ptr %8, i64 8
  store double %25, ptr %26, align 8, !tbaa !43
  store ptr %1, ptr %4, align 8, !tbaa !44
  %27 = getelementptr inbounds nuw i8, ptr %4, i64 8
  store ptr %.0, ptr %27, align 8, !tbaa !46
  %28 = getelementptr inbounds nuw i8, ptr %0, i64 76
  %29 = load i32, ptr %28, align 4, !tbaa !47
  %30 = tail call i32 @ff_filter_get_nb_threads(ptr noundef nonnull %6) #9
  %. = tail call i32 @llvm.smin.i32(i32 %29, i32 %30)
  %31 = call i32 @ff_filter_execute(ptr noundef nonnull %6, ptr noundef nonnull @filter_channels, ptr noundef nonnull %4, ptr noundef null, i32 noundef %.) #8
  %32 = load ptr, ptr %3, align 8, !tbaa !4
  %33 = getelementptr inbounds nuw i8, ptr %32, i64 112
  %34 = load i32, ptr %33, align 8, !tbaa !34
  %35 = sext i32 %34 to i64
  %36 = getelementptr inbounds nuw i8, ptr %8, i64 32
  %37 = load i64, ptr %36, align 8, !tbaa !48
  %38 = add nsw i64 %37, %35
  store i64 %38, ptr %36, align 8, !tbaa !48
  %.not23 = icmp eq ptr %.0, %32
  br i1 %.not23, label %40, label %39

39:                                               ; preds = %20
  call void @av_frame_free(ptr noundef nonnull %3) #8
  br label %40

40:                                               ; preds = %39, %20
  %41 = call i32 @ff_filter_frame(ptr noundef %11, ptr noundef %.0) #8
  br label %42

42:                                               ; preds = %40, %17
  %.018 = phi i32 [ %41, %40 ], [ -12, %17 ]
  call void @llvm.lifetime.end.p0(i64 16, ptr nonnull %4) #8
  ret i32 %.018
}